target datalayout = "e-m:e-p270:32:32-p271:32:32-p272:64:64-i64:64-i128:128-f80:128-n8:16:32:64-S128"
target triple = "x86_64-pc-linux-gnu"

%"class.draco::SequentialAttributeDecoder" = type { ptr, ptr, ptr, i32, %"class.std::unique_ptr" }
%"class.std::unique_ptr" = type { %"struct.std::__uniq_ptr_data" }
%"struct.std::__uniq_ptr_data" = type { %"class.std::__uniq_ptr_impl" }
%"class.std::__uniq_ptr_impl" = type { %"class.std::tuple" }
%"class.std::tuple" = type { %"struct.std::_Tuple_impl" }
%"struct.std::_Tuple_impl" = type { %"struct.std::_Head_base.1" }
%"struct.std::_Head_base.1" = type { ptr }
%"class.draco::GeometryAttribute" = type { ptr, %"struct.draco::DataBufferDescriptor", i8, i32, i8, i64, i64, i32, i32 }
%"struct.draco::DataBufferDescriptor" = type { i64, i64 }

; Function Attrs: mustprogress nounwind uwtable
define linkonce_odr noundef i32 @_ZNK5draco17GeometryAttribute9data_typeEv(ptr noundef nonnull align 8 dereferenceable(64) %0) #5 comdat align 2 {
  %2 = alloca ptr, align 8
  store ptr %0, ptr %2, align 8, !tbaa !32
  %3 = load ptr, ptr %2, align 8
  %4 = getelementptr inbounds nuw %"class.draco::GeometryAttribute", ptr %3, i32 0, i32 3
  %5 = load i32, ptr %4, align 4, !tbaa !42
  ret i32 %5
}

; Function Attrs: mustprogress nounwind uwtable
define linkonce_odr noundef zeroext i8 @_ZNK5draco17GeometryAttribute14num_componentsEv(ptr noundef nonnull align 8 dereferenceable(64) %0) #5 comdat align 2 {
  %2 = alloca ptr, align 8
  store ptr %0, ptr %2, align 8, !tbaa !32
  %3 = load ptr, ptr %2, align 8
  %4 = getelementptr inbounds nuw %"class.draco::GeometryAttribute", ptr %3, i32 0, i32 2
  %5 = load i8, ptr %4, align 8, !tbaa !34
  ret i8 %5
}

; Function Attrs: mustprogress nounwind uwtable
define linkonce_odr noundef ptr @_ZN5draco26SequentialAttributeDecoder9attributeEv(ptr noundef nonnull align 8 dereferenceable(40) %0) #5 comdat align 2 {
  %2 = alloca ptr, align 8
  store ptr %0, ptr %2, align 8, !tbaa !21
  %3 = load ptr, ptr %2, align 8
  %4 = getelementptr inbounds nuw %"class.draco::SequentialAttributeDecoder", ptr %3, i32 0, i32 2
  %5 = load ptr, ptr %4, align 8, !tbaa !23
  ret ptr %5
}

; Function Attrs: mustprogress uwtable
define noundef zeroext i1 @_ZN5draco32SequentialNormalAttributeDecoder4InitEPNS_17PointCloudDecoderEi(ptr noundef nonnull align 8 dereferenceable(64) %0, ptr noundef %1, i32 noundef %2) unnamed_addr #4 align 2 {
  %4 = alloca i1, align 1
  %5 = alloca ptr, align 8
  %6 = alloca ptr, align 8
  %7 = alloca i32, align 4
  store ptr %0, ptr %5, align 8, !tbaa !3
  store ptr %1, ptr %6, align 8, !tbaa !18
  store i32 %2, ptr %7, align 4, !tbaa !20
  %8 = load ptr, ptr %5, align 8
  %9 = load ptr, ptr %6, align 8, !tbaa !18
  %10 = load i32, ptr %7, align 4, !tbaa !20
  %11 = call noundef zeroext i1 @_ZN5draco33SequentialIntegerAttributeDecoder4InitEPNS_17PointCloudDecoderEi(ptr noundef nonnull align 8 dereferenceable(48) %8, ptr noundef %9, i32 noundef %10)
  br i1 %11, label %13, label %12

12:                                               ; preds = %3
  store i1 false, ptr %4, align 1
  br label %25

13:                                               ; preds = %3
  %14 = call noundef ptr @_ZN5draco26SequentialAttributeDecoder9attributeEv(ptr noundef nonnull align 8 dereferenceable(40) %8)
  %15 = call noundef zeroext i8 @_ZNK5draco17GeometryAttribute14num_componentsEv(ptr noundef nonnull align 8 dereferenceable(64) %14)
  %16 = zext i8 %15 to i32
  %17 = icmp ne i32 %16, 3
  br i1 %17, label %18, label %19

18:                                               ; preds = %13
  store i1 false, ptr %4, align 1
  br label %25

19:                                               ; preds = %13
  %20 = call noundef ptr @_ZN5draco26SequentialAttributeDecoder9attributeEv(ptr noundef nonnull align 8 dereferenceable(40) %8)
  %21 = call noundef i32 @_ZNK5draco17GeometryAttribute9data_typeEv(ptr noundef nonnull align 8 dereferenceable(64) %20)
  %22 = icmp ne i32 %21, 9
  br i1 %22, label %23, label %24

23:                                               ; preds = %19
  store i1 false, ptr %4, align 1
  br label %25

24:                                               ; preds = %19
  store i1 true, ptr %4, align 1
  br label %25

25:                                               ; preds = %24, %23, %18, %12
  %26 = load i1, ptr %4, align 1
  ret i1 %26
}