; Function Attrs: mustprogress uwtable
define noundef zeroext i1 @_ZN5draco32SequentialNormalAttributeDecoder4InitEPNS_17PointCloudDecoderEi(ptr noundef nonnull align 8 dereferenceable(64) %0, ptr noundef %1, i32 noundef %2) unnamed_addr #3 align 2 {
  %4 = tail call noundef zeroext i1 @_ZN5draco33SequentialIntegerAttributeDecoder4InitEPNS_17PointCloudDecoderEi(ptr noundef nonnull align 8 dereferenceable(48) %0, ptr noundef %1, i32 noundef %2)
  br i1 %4, label %5, label %13

5:                                                ; preds = %3
  %6 = getelementptr inbounds nuw i8, ptr %0, i64 16
  %7 = load ptr, ptr %6, align 8, !tbaa !11
  %8 = getelementptr inbounds nuw i8, ptr %7, i64 24
  %9 = load i8, ptr %8, align 8, !tbaa !22
  %.not = icmp eq i8 %9, 3
  br i1 %.not, label %10, label %13

10:                                               ; preds = %5
  %11 = getelementptr inbounds nuw i8, ptr %7, i64 28
  %12 = load i32, ptr %11, align 4, !tbaa !30
  %.not3 = icmp eq i32 %12, 9
  br label %13

13:                                               ; preds = %10, %5, %3
  %.0 = phi i1 [ false, %3 ], [ false, %5 ], [ %.not3, %10 ]
  ret i1 %.0
}